target datalayout = "e-m:e-p270:32:32-p271:32:32-p272:64:64-i64:64-i128:128-f80:128-n8:16:32:64-S128"
target triple = "x86_64-pc-linux-gnu"

%struct.Map_NodeStruct_t_ = type { ptr, ptr, i32, i32, i32, i32, [3 x i32], [3 x float], float, ptr, ptr, ptr, ptr, [2 x %struct.Map_TimeStruct_t_], [2 x %struct.Map_TimeStruct_t_], [2 x ptr], ptr, ptr, ptr }
%struct.Map_TimeStruct_t_ = type { float, float, float }
%struct.Map_ManStruct_t_ = type { ptr, i32, ptr, i32, ptr, i32, i32, ptr, ptr, ptr, ptr, ptr, ptr, ptr, ptr, i32, i32, i32, i32, float, float, float, float, i32, i32, float, i32, i32, i32, i32, ptr, [6 x [2 x i32]], [10 x [32 x i32]], [32 x i32], [32 x i32], ptr, ptr, ptr, ptr, ptr, ptr, i32, i32, i32, i32, i32, i32, i64, i64, i64, i64, i64, i64, i64, i64, i64, i64, i64 }
%struct.Map_NodeVecStruct_t_ = type { ptr, i32, i32 }

@.str.6 = private unnamed_addr constant [39 x i8] c"Primary input %d is a secondary node.\0A\00", align 1
@.str.7 = private unnamed_addr constant [36 x i8] c"Constant 1 %d is a secondary node.\0A\00", align 1
@.str.8 = private unnamed_addr constant [39 x i8] c"Internal node %d is a secondary node.\0A\00", align 1
@.str.9 = private unnamed_addr constant [60 x i8] c"Internal node %d has first fanin that is a secondary node.\0A\00", align 1
@.str.10 = private unnamed_addr constant [61 x i8] c"Internal node %d has second fanin that is a secondary node.\0A\00", align 1

; Function Attrs: nounwind uwtable
define ptr @Map_MappingDfs(ptr noundef %0, i32 noundef %1) #0 {
  %3 = alloca ptr, align 8
  %4 = alloca i32, align 4
  %5 = alloca ptr, align 8
  %6 = alloca i32, align 4
  store ptr %0, ptr %3, align 8, !tbaa !20
  store i32 %1, ptr %4, align 4, !tbaa !10
  call void @llvm.lifetime.start.p0(i64 8, ptr %5) #4
  call void @llvm.lifetime.start.p0(i64 4, ptr %6) #4
  %7 = call ptr @Map_NodeVecAlloc(i32 noundef 100)
  store ptr %7, ptr %5, align 8, !tbaa !8
  store i32 0, ptr %6, align 4, !tbaa !10
  br label %8

8:                                                ; preds = %27, %2
  %9 = load i32, ptr %6, align 4, !tbaa !10
  %10 = load ptr, ptr %3, align 8, !tbaa !20
  %11 = getelementptr inbounds nuw %struct.Map_ManStruct_t_, ptr %10, i32 0, i32 5
  %12 = load i32, ptr %11, align 8, !tbaa !21
  %13 = icmp slt i32 %9, %12
  br i1 %13, label %14, label %30

14:                                               ; preds = %8
  %15 = load ptr, ptr %3, align 8, !tbaa !20
  %16 = getelementptr inbounds nuw %struct.Map_ManStruct_t_, ptr %15, i32 0, i32 4
  %17 = load ptr, ptr %16, align 8, !tbaa !32
  %18 = load i32, ptr %6, align 4, !tbaa !10
  %19 = sext i32 %18 to i64
  %20 = getelementptr inbounds ptr, ptr %17, i64 %19
  %21 = load ptr, ptr %20, align 8, !tbaa !3
  %22 = ptrtoint ptr %21 to i64
  %23 = and i64 %22, -2
  %24 = inttoptr i64 %23 to ptr
  %25 = load ptr, ptr %5, align 8, !tbaa !8
  %26 = load i32, ptr %4, align 4, !tbaa !10
  call void @Map_MappingDfs_rec(ptr noundef %24, ptr noundef %25, i32 noundef %26)
  br label %27

27:                                               ; preds = %14
  %28 = load i32, ptr %6, align 4, !tbaa !10
  %29 = add nsw i32 %28, 1
  store i32 %29, ptr %6, align 4, !tbaa !10
  br label %8, !llvm.loop !33

30:                                               ; preds = %8
  store i32 0, ptr %6, align 4, !tbaa !10
  br label %31

31:                                               ; preds = %49, %30
  %32 = load i32, ptr %6, align 4, !tbaa !10
  %33 = load ptr, ptr %5, align 8, !tbaa !8
  %34 = getelementptr inbounds nuw %struct.Map_NodeVecStruct_t_, ptr %33, i32 0, i32 1
  %35 = load i32, ptr %34, align 8, !tbaa !35
  %36 = icmp slt i32 %32, %35
  br i1 %36, label %37, label %52

37:                                               ; preds = %31
  %38 = load ptr, ptr %5, align 8, !tbaa !8
  %39 = getelementptr inbounds nuw %struct.Map_NodeVecStruct_t_, ptr %38, i32 0, i32 0
  %40 = load ptr, ptr %39, align 8, !tbaa !37
  %41 = load i32, ptr %6, align 4, !tbaa !10
  %42 = sext i32 %41 to i64
  %43 = getelementptr inbounds ptr, ptr %40, i64 %42
  %44 = load ptr, ptr %43, align 8, !tbaa !3
  %45 = getelementptr inbounds nuw %struct.Map_NodeStruct_t_, ptr %44, i32 0, i32 5
  %46 = load i32, ptr %45, align 4
  %47 = and i32 %46, -2
  %48 = or i32 %47, 0
  store i32 %48, ptr %45, align 4
  br label %49

49:                                               ; preds = %37
  %50 = load i32, ptr %6, align 4, !tbaa !10
  %51 = add nsw i32 %50, 1
  store i32 %51, ptr %6, align 4, !tbaa !10
  br label %31, !llvm.loop !38

52:                                               ; preds = %31
  %53 = load ptr, ptr %5, align 8, !tbaa !8
  call void @llvm.lifetime.end.p0(i64 4, ptr %6) #4
  call void @llvm.lifetime.end.p0(i64 8, ptr %5) #4
  ret ptr %53
}

; Function Attrs: nounwind uwtable
define i32 @Map_ManCheckConsistency(ptr noundef %0) #0 {
  %2 = alloca ptr, align 8
  %3 = alloca ptr, align 8
  %4 = alloca ptr, align 8
  %5 = alloca i32, align 4
  store ptr %0, ptr %2, align 8, !tbaa !20
  call void @llvm.lifetime.start.p0(i64 8, ptr %3) #4
  call void @llvm.lifetime.start.p0(i64 8, ptr %4) #4
  call void @llvm.lifetime.start.p0(i64 4, ptr %5) #4
  %6 = load ptr, ptr %2, align 8, !tbaa !20
  %7 = call ptr @Map_MappingDfs(ptr noundef %6, i32 noundef 0)
  store ptr %7, ptr %4, align 8, !tbaa !8
  store i32 0, ptr %5, align 4, !tbaa !10
  br label %8

8:                                                ; preds = %94, %1
  %9 = load i32, ptr %5, align 4, !tbaa !10
  %10 = load ptr, ptr %4, align 8, !tbaa !8
  %11 = getelementptr inbounds nuw %struct.Map_NodeVecStruct_t_, ptr %10, i32 0, i32 1
  %12 = load i32, ptr %11, align 8, !tbaa !35
  %13 = icmp slt i32 %9, %12
  br i1 %13, label %14, label %97

14:                                               ; preds = %8
  %15 = load ptr, ptr %4, align 8, !tbaa !8
  %16 = getelementptr inbounds nuw %struct.Map_NodeVecStruct_t_, ptr %15, i32 0, i32 0
  %17 = load ptr, ptr %16, align 8, !tbaa !37
  %18 = load i32, ptr %5, align 4, !tbaa !10
  %19 = sext i32 %18 to i64
  %20 = getelementptr inbounds ptr, ptr %17, i64 %19
  %21 = load ptr, ptr %20, align 8, !tbaa !3
  store ptr %21, ptr %3, align 8, !tbaa !3
  %22 = load ptr, ptr %3, align 8, !tbaa !3
  %23 = call i32 @Map_NodeIsVar(ptr noundef %22)
  %24 = icmp ne i32 %23, 0
  br i1 %24, label %25, label %36

25:                                               ; preds = %14
  %26 = load ptr, ptr %3, align 8, !tbaa !3
  %27 = getelementptr inbounds nuw %struct.Map_NodeStruct_t_, ptr %26, i32 0, i32 12
  %28 = load ptr, ptr %27, align 8, !tbaa !63
  %29 = icmp ne ptr %28, null
  br i1 %29, label %30, label %35

30:                                               ; preds = %25
  %31 = load ptr, ptr %3, align 8, !tbaa !3
  %32 = getelementptr inbounds nuw %struct.Map_NodeStruct_t_, ptr %31, i32 0, i32 2
  %33 = load i32, ptr %32, align 8, !tbaa !64
  %34 = call i32 (ptr, ...) @printf(ptr noundef @.str.6, i32 noundef %33)
  br label %35

35:                                               ; preds = %30, %25
  br label %93

36:                                               ; preds = %14
  %37 = load ptr, ptr %3, align 8, !tbaa !3
  %38 = call i32 @Map_NodeIsConst(ptr noundef %37)
  %39 = icmp ne i32 %38, 0
  br i1 %39, label %40, label %51

40:                                               ; preds = %36
  %41 = load ptr, ptr %3, align 8, !tbaa !3
  %42 = getelementptr inbounds nuw %struct.Map_NodeStruct_t_, ptr %41, i32 0, i32 12
  %43 = load ptr, ptr %42, align 8, !tbaa !63
  %44 = icmp ne ptr %43, null
  br i1 %44, label %45, label %50

45:                                               ; preds = %40
  %46 = load ptr, ptr %3, align 8, !tbaa !3
  %47 = getelementptr inbounds nuw %struct.Map_NodeStruct_t_, ptr %46, i32 0, i32 2
  %48 = load i32, ptr %47, align 8, !tbaa !64
  %49 = call i32 (ptr, ...) @printf(ptr noundef @.str.7, i32 noundef %48)
  br label %50

50:                                               ; preds = %45, %40
  br label %92

51:                                               ; preds = %36
  %52 = load ptr, ptr %3, align 8, !tbaa !3
  %53 = getelementptr inbounds nuw %struct.Map_NodeStruct_t_, ptr %52, i32 0, i32 12
  %54 = load ptr, ptr %53, align 8, !tbaa !63
  %55 = icmp ne ptr %54, null
  br i1 %55, label %56, label %61

56:                                               ; preds = %51
  %57 = load ptr, ptr %3, align 8, !tbaa !3
  %58 = getelementptr inbounds nuw %struct.Map_NodeStruct_t_, ptr %57, i32 0, i32 2
  %59 = load i32, ptr %58, align 8, !tbaa !64
  %60 = call i32 (ptr, ...) @printf(ptr noundef @.str.8, i32 noundef %59)
  br label %61

61:                                               ; preds = %56, %51
  %62 = load ptr, ptr %3, align 8, !tbaa !3
  %63 = getelementptr inbounds nuw %struct.Map_NodeStruct_t_, ptr %62, i32 0, i32 9
  %64 = load ptr, ptr %63, align 8, !tbaa !12
  %65 = ptrtoint ptr %64 to i64
  %66 = and i64 %65, -2
  %67 = inttoptr i64 %66 to ptr
  %68 = getelementptr inbounds nuw %struct.Map_NodeStruct_t_, ptr %67, i32 0, i32 12
  %69 = load ptr, ptr %68, align 8, !tbaa !63
  %70 = icmp ne ptr %69, null
  br i1 %70, label %71, label %76

71:                                               ; preds = %61
  %72 = load ptr, ptr %3, align 8, !tbaa !3
  %73 = getelementptr inbounds nuw %struct.Map_NodeStruct_t_, ptr %72, i32 0, i32 2
  %74 = load i32, ptr %73, align 8, !tbaa !64
  %75 = call i32 (ptr, ...) @printf(ptr noundef @.str.9, i32 noundef %74)
  br label %76

76:                                               ; preds = %71, %61
  %77 = load ptr, ptr %3, align 8, !tbaa !3
  %78 = getelementptr inbounds nuw %struct.Map_NodeStruct_t_, ptr %77, i32 0, i32 10
  %79 = load ptr, ptr %78, align 8, !tbaa !18
  %80 = ptrtoint ptr %79 to i64
  %81 = and i64 %80, -2
  %82 = inttoptr i64 %81 to ptr
  %83 = getelementptr inbounds nuw %struct.Map_NodeStruct_t_, ptr %82, i32 0, i32 12
  %84 = load ptr, ptr %83, align 8, !tbaa !63
  %85 = icmp ne ptr %84, null
  br i1 %85, label %86, label %91

86:                                               ; preds = %76
  %87 = load ptr, ptr %3, align 8, !tbaa !3
  %88 = getelementptr inbounds nuw %struct.Map_NodeStruct_t_, ptr %87, i32 0, i32 2
  %89 = load i32, ptr %88, align 8, !tbaa !64
  %90 = call i32 (ptr, ...) @printf(ptr noundef @.str.10, i32 noundef %89)
  br label %91

91:                                               ; preds = %86, %76
  br label %92

92:                                               ; preds = %91, %50
  br label %93

93:                                               ; preds = %92, %35
  br label %94

94:                                               ; preds = %93
  %95 = load i32, ptr %5, align 4, !tbaa !10
  %96 = add nsw i32 %95, 1
  store i32 %96, ptr %5, align 4, !tbaa !10
  br label %8, !llvm.loop !65

97:                                               ; preds = %8
  %98 = load ptr, ptr %4, align 8, !tbaa !8
  call void @Map_NodeVecFree(ptr noundef %98)
  call void @llvm.lifetime.end.p0(i64 4, ptr %5) #4
  call void @llvm.lifetime.end.p0(i64 8, ptr %4) #4
  call void @llvm.lifetime.end.p0(i64 8, ptr %3) #4
  ret i32 1
}