; Function Attrs: nounwind uwtable
define noundef i32 @Map_ManCheckConsistency(ptr noundef readonly captures(none) %0) local_unnamed_addr #0 {
  %2 = tail call ptr @Map_NodeVecAlloc(i32 noundef 100) #16
  %3 = getelementptr inbounds nuw i8, ptr %0, i64 40
  %4 = load i32, ptr %3, align 8, !tbaa !16
  %5 = icmp sgt i32 %4, 0
  br i1 %5, label %.lr.ph.i, label %.preheader.i

.lr.ph.i:                                         ; preds = %1
  %6 = getelementptr inbounds nuw i8, ptr %0, i64 32
  br label %10

.preheader.i:                                     ; preds = %10, %1
  %7 = getelementptr inbounds nuw i8, ptr %2, i64 8
  %8 = load i32, ptr %7, align 8, !tbaa !28
  %9 = icmp sgt i32 %8, 0
  br i1 %9, label %.lr.ph14.i, label %._crit_edge

10:                                               ; preds = %10, %.lr.ph.i
  %indvars.iv.i = phi i64 [ 0, %.lr.ph.i ], [ %indvars.iv.next.i, %10 ]
  %11 = load ptr, ptr %6, align 8, !tbaa !30
  %12 = getelementptr inbounds nuw ptr, ptr %11, i64 %indvars.iv.i
  %13 = load ptr, ptr %12, align 8, !tbaa !31
  %14 = ptrtoint ptr %13 to i64
  %15 = and i64 %14, -2
  %16 = inttoptr i64 %15 to ptr
  tail call void @Map_MappingDfs_rec(ptr noundef %16, ptr noundef %2, i32 noundef 0)
  %indvars.iv.next.i = add nuw nsw i64 %indvars.iv.i, 1
  %17 = load i32, ptr %3, align 8, !tbaa !16
  %18 = sext i32 %17 to i64
  %19 = icmp slt i64 %indvars.iv.next.i, %18
  br i1 %19, label %10, label %.preheader.i, !llvm.loop !32

.lr.ph14.i:                                       ; preds = %.preheader.i, %.lr.ph14.i
  %indvars.iv16.i = phi i64 [ %indvars.iv.next17.i, %.lr.ph14.i ], [ 0, %.preheader.i ]
  %20 = load ptr, ptr %2, align 8, !tbaa !34
  %21 = getelementptr inbounds nuw ptr, ptr %20, i64 %indvars.iv16.i
  %22 = load ptr, ptr %21, align 8, !tbaa !31
  %23 = getelementptr inbounds nuw i8, ptr %22, i64 28
  %24 = load i32, ptr %23, align 4
  %25 = and i32 %24, -2
  store i32 %25, ptr %23, align 4
  %indvars.iv.next17.i = add nuw nsw i64 %indvars.iv16.i, 1
  %26 = load i32, ptr %7, align 8, !tbaa !28
  %27 = sext i32 %26 to i64
  %28 = icmp slt i64 %indvars.iv.next17.i, %27
  br i1 %28, label %.lr.ph14.i, label %Map_MappingDfs.exit, !llvm.loop !35

Map_MappingDfs.exit:                              ; preds = %.lr.ph14.i
  %29 = icmp sgt i32 %26, 0
  br i1 %29, label %.lr.ph, label %._crit_edge

.lr.ph:                                           ; preds = %Map_MappingDfs.exit, %70
  %indvars.iv = phi i64 [ %indvars.iv.next, %70 ], [ 0, %Map_MappingDfs.exit ]
  %30 = load ptr, ptr %2, align 8, !tbaa !34
  %31 = getelementptr inbounds nuw ptr, ptr %30, i64 %indvars.iv
  %32 = load ptr, ptr %31, align 8, !tbaa !31
  %33 = tail call i32 @Map_NodeIsVar(ptr noundef %32) #16
  %.not = icmp eq i32 %33, 0
  br i1 %.not, label %37, label %34

34:                                               ; preds = %.lr.ph
  %35 = getelementptr inbounds nuw i8, ptr %32, i64 88
  %36 = load ptr, ptr %35, align 8, !tbaa !60
  %.not23 = icmp eq ptr %36, null
  br i1 %.not23, label %70, label %.sink.split

37:                                               ; preds = %.lr.ph
  %38 = tail call i32 @Map_NodeIsConst(ptr noundef %32) #16
  %.not18 = icmp eq i32 %38, 0
  %39 = getelementptr inbounds nuw i8, ptr %32, i64 88
  %40 = load ptr, ptr %39, align 8, !tbaa !60
  %.not19 = icmp eq ptr %40, null
  br i1 %.not18, label %42, label %41

41:                                               ; preds = %37
  br i1 %.not19, label %70, label %.sink.split

42:                                               ; preds = %37
  br i1 %.not19, label %47, label %43

43:                                               ; preds = %42
  %44 = getelementptr inbounds nuw i8, ptr %32, i64 16
  %45 = load i32, ptr %44, align 8, !tbaa !61
  %46 = tail call i32 (ptr, ...) @printf(ptr noundef nonnull dereferenceable(1) @.str.8, i32 noundef %45)
  br label %47

47:                                               ; preds = %43, %42
  %48 = getelementptr inbounds nuw i8, ptr %32, i64 64
  %49 = load ptr, ptr %48, align 8, !tbaa !3
  %50 = ptrtoint ptr %49 to i64
  %51 = and i64 %50, -2
  %52 = inttoptr i64 %51 to ptr
  %53 = getelementptr inbounds nuw i8, ptr %52, i64 88
  %54 = load ptr, ptr %53, align 8, !tbaa !60
  %.not20 = icmp eq ptr %54, null
  br i1 %.not20, label %59, label %55

55:                                               ; preds = %47
  %56 = getelementptr inbounds nuw i8, ptr %32, i64 16
  %57 = load i32, ptr %56, align 8, !tbaa !61
  %58 = tail call i32 (ptr, ...) @printf(ptr noundef nonnull dereferenceable(1) @.str.9, i32 noundef %57)
  br label %59

59:                                               ; preds = %55, %47
  %60 = getelementptr inbounds nuw i8, ptr %32, i64 72
  %61 = load ptr, ptr %60, align 8, !tbaa !14
  %62 = ptrtoint ptr %61 to i64
  %63 = and i64 %62, -2
  %64 = inttoptr i64 %63 to ptr
  %65 = getelementptr inbounds nuw i8, ptr %64, i64 88
  %66 = load ptr, ptr %65, align 8, !tbaa !60
  %.not21 = icmp eq ptr %66, null
  br i1 %.not21, label %70, label %.sink.split

.sink.split:                                      ; preds = %59, %41, %34
  %.str.6.sink = phi ptr [ @.str.6, %34 ], [ @.str.7, %41 ], [ @.str.10, %59 ]
  %67 = getelementptr inbounds nuw i8, ptr %32, i64 16
  %68 = load i32, ptr %67, align 8, !tbaa !61
  %69 = tail call i32 (ptr, ...) @printf(ptr noundef nonnull dereferenceable(1) %.str.6.sink, i32 noundef %68)
  br label %70

70:                                               ; preds = %.sink.split, %34, %59, %41
  %indvars.iv.next = add nuw nsw i64 %indvars.iv, 1
  %71 = load i32, ptr %7, align 8, !tbaa !28
  %72 = sext i32 %71 to i64
  %73 = icmp slt i64 %indvars.iv.next, %72
  br i1 %73, label %.lr.ph, label %._crit_edge, !llvm.loop !62

._crit_edge:                                      ; preds = %70, %.preheader.i, %Map_MappingDfs.exit
  tail call void @Map_NodeVecFree(ptr noundef nonnull %2) #16
  ret i32 1
}